; Function Attrs: mustprogress uwtable
define noundef zeroext i1 @_ZN9GPUShader4loadEv(ptr noundef nonnull align 8 dereferenceable(42) %0) local_unnamed_addr #3 align 2 personality ptr @__gxx_personality_v0 {
  %2 = alloca %class.QString, align 8
  %3 = alloca %class.QFile, align 8
  %4 = alloca %class.QString, align 8
  %5 = alloca %class.QTextStream, align 8
  %6 = alloca %class.QString, align 8
  %7 = alloca %"class.std::__cxx11::basic_string", align 8
  %8 = alloca ptr, align 8
  store ptr @_ZN10QArrayData11shared_nullE, ptr %2, align 8
  %9 = tail call noundef ptr @_ZNKSt7__cxx1112basic_stringIcSt11char_traitsIcESaIcEE5c_strEv(ptr noundef nonnull align 8 dereferenceable(32) %0) #13
  %.not.i = icmp eq ptr %9, null
  br i1 %.not.i, label %13, label %10

10:                                               ; preds = %1
  %11 = tail call i64 @strlen(ptr noundef nonnull dereferenceable(1) %9) #15
  %12 = trunc i64 %11 to i32
  br label %13

13:                                               ; preds = %10, %1
  %14 = phi i32 [ %12, %10 ], [ -1, %1 ]
  %15 = invoke noundef ptr @_ZN7QString16fromAscii_helperEPKci(ptr noundef %9, i32 noundef %14)
          to label %16 unwind label %30

16:                                               ; preds = %13
  store ptr %15, ptr %4, align 8
  invoke void @_ZN5QFileC1ERK7QString(ptr noundef nonnull align 8 dereferenceable(16) %3, ptr noundef nonnull align 8 dereferenceable(8) %4)
          to label %17 unwind label %32

17:                                               ; preds = %16
  %18 = load ptr, ptr %4, align 8
  %19 = load atomic i32, ptr %18 monotonic, align 4
  switch i32 %19, label %_ZN9QtPrivate8RefCount5derefEv.exit.i [
    i32 0, label %_ZN9QtPrivate8RefCount5derefEv.exit.thread2.i
    i32 -1, label %_ZN7QStringD2Ev.exit
  ]

_ZN9QtPrivate8RefCount5derefEv.exit.i:            ; preds = %17
  %20 = atomicrmw sub ptr %18, i32 1 seq_cst, align 4
  %.not.i11 = icmp eq i32 %20, 1
  br i1 %.not.i11, label %_ZN9QtPrivate8RefCount5derefEv.exit._ZN9QtPrivate8RefCount5derefEv.exit.thread2_crit_edge.i, label %_ZN7QStringD2Ev.exit

_ZN9QtPrivate8RefCount5derefEv.exit._ZN9QtPrivate8RefCount5derefEv.exit.thread2_crit_edge.i: ; preds = %_ZN9QtPrivate8RefCount5derefEv.exit.i
  %.pre.i = load ptr, ptr %4, align 8
  br label %_ZN9QtPrivate8RefCount5derefEv.exit.thread2.i

_ZN9QtPrivate8RefCount5derefEv.exit.thread2.i:    ; preds = %_ZN9QtPrivate8RefCount5derefEv.exit._ZN9QtPrivate8RefCount5derefEv.exit.thread2_crit_edge.i, %17
  %21 = phi ptr [ %.pre.i, %_ZN9QtPrivate8RefCount5derefEv.exit._ZN9QtPrivate8RefCount5derefEv.exit.thread2_crit_edge.i ], [ %18, %17 ]
  call void @_ZN10QArrayData10deallocateEPS_mm(ptr noundef %21, i64 noundef 2, i64 noundef 8) #13
  br label %_ZN7QStringD2Ev.exit

_ZN7QStringD2Ev.exit:                             ; preds = %17, %_ZN9QtPrivate8RefCount5derefEv.exit.i, %_ZN9QtPrivate8RefCount5derefEv.exit.thread2.i
  %22 = invoke noundef zeroext i1 @_ZN5QFile4openE6QFlagsIN9QIODevice12OpenModeFlagEE(ptr noundef nonnull align 8 dereferenceable(16) %3, i32 1)
          to label %23 unwind label %34

23:                                               ; preds = %_ZN7QStringD2Ev.exit
  br i1 %22, label %36, label %24

24:                                               ; preds = %23
  %25 = invoke noundef nonnull align 8 dereferenceable(8) ptr @_ZStlsISt11char_traitsIcEERSt13basic_ostreamIcT_ES5_PKc(ptr noundef nonnull align 8 dereferenceable(8) @_ZSt4cerr, ptr noundef nonnull @.str)
          to label %26 unwind label %34

26:                                               ; preds = %24
  %27 = invoke noundef nonnull align 8 dereferenceable(8) ptr @_ZStlsIcSt11char_traitsIcESaIcEERSt13basic_ostreamIT_T0_ES7_RKNSt7__cxx1112basic_stringIS4_S5_T1_EE(ptr noundef nonnull align 8 dereferenceable(8) %25, ptr noundef nonnull align 8 dereferenceable(32) %0)
          to label %28 unwind label %34

28:                                               ; preds = %26
  %29 = invoke noundef nonnull align 8 dereferenceable(8) ptr @_ZStlsISt11char_traitsIcEERSt13basic_ostreamIcT_ES5_PKc(ptr noundef nonnull align 8 dereferenceable(8) %27, ptr noundef nonnull @.str.1)
          to label %56 unwind label %34

30:                                               ; preds = %13
  %31 = landingpad { ptr, i32 }
          cleanup
  br label %62

32:                                               ; preds = %16
  %33 = landingpad { ptr, i32 }
          cleanup
  call void @_ZN7QStringD2Ev(ptr noundef nonnull align 8 dereferenceable(8) %4) #13
  br label %62

34:                                               ; preds = %36, %28, %26, %24, %_ZN7QStringD2Ev.exit
  %35 = landingpad { ptr, i32 }
          cleanup
  br label %61

36:                                               ; preds = %23
  invoke void @_ZN11QTextStreamC1EP9QIODevice(ptr noundef nonnull align 8 dereferenceable(16) %5, ptr noundef nonnull %3)
          to label %37 unwind label %34

37:                                               ; preds = %36
  invoke void @_ZN11QTextStream7readAllEv(ptr dead_on_unwind nonnull writable sret(%class.QString) align 8 %6, ptr noundef nonnull align 8 dereferenceable(16) %5)
          to label %38 unwind label %51

38:                                               ; preds = %37
  %39 = load ptr, ptr %2, align 8
  %40 = load ptr, ptr %6, align 8
  store ptr %40, ptr %2, align 8
  store ptr %39, ptr %6, align 8
  %41 = load atomic i32, ptr %39 monotonic, align 4
  switch i32 %41, label %_ZN9QtPrivate8RefCount5derefEv.exit.i13 [
    i32 0, label %_ZN9QtPrivate8RefCount5derefEv.exit.thread2.i12
    i32 -1, label %_ZN7QStringD2Ev.exit17
  ]

_ZN9QtPrivate8RefCount5derefEv.exit.i13:          ; preds = %38
  %42 = atomicrmw sub ptr %39, i32 1 seq_cst, align 4
  %.not.i14 = icmp eq i32 %42, 1
  br i1 %.not.i14, label %_ZN9QtPrivate8RefCount5derefEv.exit._ZN9QtPrivate8RefCount5derefEv.exit.thread2_crit_edge.i15, label %_ZN7QStringD2Ev.exit17

_ZN9QtPrivate8RefCount5derefEv.exit._ZN9QtPrivate8RefCount5derefEv.exit.thread2_crit_edge.i15: ; preds = %_ZN9QtPrivate8RefCount5derefEv.exit.i13
  %.pre.i16 = load ptr, ptr %6, align 8
  br label %_ZN9QtPrivate8RefCount5derefEv.exit.thread2.i12

_ZN9QtPrivate8RefCount5derefEv.exit.thread2.i12:  ; preds = %_ZN9QtPrivate8RefCount5derefEv.exit._ZN9QtPrivate8RefCount5derefEv.exit.thread2_crit_edge.i15, %38
  %43 = phi ptr [ %.pre.i16, %_ZN9QtPrivate8RefCount5derefEv.exit._ZN9QtPrivate8RefCount5derefEv.exit.thread2_crit_edge.i15 ], [ %39, %38 ]
  call void @_ZN10QArrayData10deallocateEPS_mm(ptr noundef %43, i64 noundef 2, i64 noundef 8) #13
  br label %_ZN7QStringD2Ev.exit17

_ZN7QStringD2Ev.exit17:                           ; preds = %38, %_ZN9QtPrivate8RefCount5derefEv.exit.i13, %_ZN9QtPrivate8RefCount5derefEv.exit.thread2.i12
  invoke void @_ZN11QFileDevice5closeEv(ptr noundef nonnull align 8 dereferenceable(16) %3)
          to label %44 unwind label %51

44:                                               ; preds = %_ZN7QStringD2Ev.exit17
  invoke void @_ZNK7QString11toStdStringB5cxx11Ev(ptr dead_on_unwind nonnull writable sret(%"class.std::__cxx11::basic_string") align 8 %7, ptr noundef nonnull align 8 dereferenceable(8) %2)
          to label %45 unwind label %51

45:                                               ; preds = %44
  %46 = call noundef ptr @_ZNKSt7__cxx1112basic_stringIcSt11char_traitsIcESaIcEE5c_strEv(ptr noundef nonnull align 8 dereferenceable(32) %7) #13
  store ptr %46, ptr %8, align 8
  %47 = load ptr, ptr @__glewShaderSource, align 8
  %48 = getelementptr inbounds nuw i8, ptr %0, i64 36
  %49 = load i32, ptr %48, align 4
  invoke void %47(i32 noundef %49, i32 noundef 1, ptr noundef nonnull %8, ptr noundef null)
          to label %50 unwind label %53

50:                                               ; preds = %45
  call void @_ZNSt7__cxx1112basic_stringIcSt11char_traitsIcESaIcEED1Ev(ptr noundef nonnull align 8 dereferenceable(32) %7) #13
  call void @_ZN11QTextStreamD1Ev(ptr noundef nonnull align 8 dereferenceable(16) %5) #13
  br label %56

51:                                               ; preds = %44, %_ZN7QStringD2Ev.exit17, %37
  %52 = landingpad { ptr, i32 }
          cleanup
  br label %55

53:                                               ; preds = %45
  %54 = landingpad { ptr, i32 }
          cleanup
  call void @_ZNSt7__cxx1112basic_stringIcSt11char_traitsIcESaIcEED1Ev(ptr noundef nonnull align 8 dereferenceable(32) %7) #13
  br label %55

55:                                               ; preds = %53, %51
  %.pn = phi { ptr, i32 } [ %54, %53 ], [ %52, %51 ]
  call void @_ZN11QTextStreamD1Ev(ptr noundef nonnull align 8 dereferenceable(16) %5) #13
  br label %61

56:                                               ; preds = %28, %50
  call void @_ZN5QFileD1Ev(ptr noundef nonnull align 8 dereferenceable(16) %3) #13
  %57 = load ptr, ptr %2, align 8
  %58 = load atomic i32, ptr %57 monotonic, align 4
  switch i32 %58, label %_ZN9QtPrivate8RefCount5derefEv.exit.i19 [
    i32 0, label %_ZN9QtPrivate8RefCount5derefEv.exit.thread2.i18
    i32 -1, label %_ZN7QStringD2Ev.exit23
  ]

_ZN9QtPrivate8RefCount5derefEv.exit.i19:          ; preds = %56
  %59 = atomicrmw sub ptr %57, i32 1 seq_cst, align 4
  %.not.i20 = icmp eq i32 %59, 1
  br i1 %.not.i20, label %_ZN9QtPrivate8RefCount5derefEv.exit._ZN9QtPrivate8RefCount5derefEv.exit.thread2_crit_edge.i21, label %_ZN7QStringD2Ev.exit23

_ZN9QtPrivate8RefCount5derefEv.exit._ZN9QtPrivate8RefCount5derefEv.exit.thread2_crit_edge.i21: ; preds = %_ZN9QtPrivate8RefCount5derefEv.exit.i19
  %.pre.i22 = load ptr, ptr %2, align 8
  br label %_ZN9QtPrivate8RefCount5derefEv.exit.thread2.i18

_ZN9QtPrivate8RefCount5derefEv.exit.thread2.i18:  ; preds = %_ZN9QtPrivate8RefCount5derefEv.exit._ZN9QtPrivate8RefCount5derefEv.exit.thread2_crit_edge.i21, %56
  %60 = phi ptr [ %.pre.i22, %_ZN9QtPrivate8RefCount5derefEv.exit._ZN9QtPrivate8RefCount5derefEv.exit.thread2_crit_edge.i21 ], [ %57, %56 ]
  call void @_ZN10QArrayData10deallocateEPS_mm(ptr noundef %60, i64 noundef 2, i64 noundef 8) #13
  br label %_ZN7QStringD2Ev.exit23

_ZN7QStringD2Ev.exit23:                           ; preds = %56, %_ZN9QtPrivate8RefCount5derefEv.exit.i19, %_ZN9QtPrivate8RefCount5derefEv.exit.thread2.i18
  ret i1 %22

61:                                               ; preds = %55, %34
  %.pn8 = phi { ptr, i32 } [ %35, %34 ], [ %.pn, %55 ]
  call void @_ZN5QFileD1Ev(ptr noundef nonnull align 8 dereferenceable(16) %3) #13
  br label %62

62:                                               ; preds = %61, %32, %30
  %.pn8.pn = phi { ptr, i32 } [ %.pn8, %61 ], [ %33, %32 ], [ %31, %30 ]
  call void @_ZN7QStringD2Ev(ptr noundef nonnull align 8 dereferenceable(8) %2) #13
  resume { ptr, i32 } %.pn8.pn
}